; Function Attrs: nounwind sspstrong uwtable
define internal fastcc range(i32 0, 6) i32 @to_float(ptr noundef nonnull captures(none) %0, i32 noundef range(i32 0, 2) %1) unnamed_addr #2 {
  %3 = load i64, ptr %0, align 8, !tbaa !7
  %4 = icmp eq i64 %3, 0
  %5 = and i64 %3, 7
  %6 = icmp ne i64 %5, 0
  %7 = or i1 %4, %6
  br i1 %7, label %8, label %40

8:                                                ; preds = %2
  %9 = and i64 %3, 1
  %.not26 = icmp eq i64 %9, 0
  br i1 %.not26, label %27, label %10

10:                                               ; preds = %8
  %11 = ashr i64 %3, 1
  %12 = sitofp i64 %11 to double
  %13 = bitcast double %12 to i64
  %cond.i = icmp eq i64 %13, 3458764513820540928
  br i1 %cond.i, label %25, label %14

14:                                               ; preds = %10
  %15 = lshr i64 %13, 60
  %16 = trunc nuw nsw i64 %15 to i32
  %17 = and i32 %16, 7
  %18 = add nsw i32 %17, -3
  %.not7.i = icmp ult i32 %18, 2
  br i1 %.not7.i, label %19, label %23

19:                                               ; preds = %14
  %20 = tail call noundef i64 @llvm.fshl.i64(i64 range(i64 3458764513820540929, 3458764513820540928) %13, i64 range(i64 3458764513820540929, 3458764513820540928) %13, i64 3)
  %21 = and i64 %20, -4
  %22 = or disjoint i64 %21, 2
  br label %rb_float_new_inline.exit

23:                                               ; preds = %14
  %24 = icmp ult i64 %3, 2
  br i1 %24, label %rb_float_new_inline.exit, label %25

25:                                               ; preds = %23, %10
  %26 = tail call i64 @rb_float_new_in_heap(double noundef %12) #23
  br label %rb_float_new_inline.exit

rb_float_new_inline.exit:                         ; preds = %19, %23, %25
  %.0.i = phi i64 [ %26, %25 ], [ %22, %19 ], [ -9223372036854775806, %23 ]
  store i64 %.0.i, ptr %0, align 8, !tbaa !7
  br label %conversion_to_float.exit

27:                                               ; preds = %8
  %28 = and i64 %3, 2
  %.not27 = icmp eq i64 %28, 0
  br i1 %.not27, label %29, label %conversion_to_float.exit

29:                                               ; preds = %27
  %.not = icmp eq i32 %1, 0
  br i1 %.not, label %conversion_to_float.exit, label %30

30:                                               ; preds = %29
  switch i64 %3, label %conversion_to_float.exit [
    i64 4, label %31
    i64 20, label %34
    i64 0, label %37
  ]

31:                                               ; preds = %30
  %32 = load i64, ptr @rb_eTypeError, align 8, !tbaa !7
  %33 = tail call i64 @rb_str_new_static(ptr noundef nonnull @.str.158, i64 noundef 28) #23
  tail call fastcc void @rb_raise_cstr_i(i64 noundef %32, i64 noundef %33) #27
  unreachable

34:                                               ; preds = %30
  %35 = load i64, ptr @rb_eTypeError, align 8, !tbaa !7
  %36 = tail call i64 @rb_str_new_static(ptr noundef nonnull @.str.159, i64 noundef 29) #23
  tail call fastcc void @rb_raise_cstr_i(i64 noundef %35, i64 noundef %36) #27
  unreachable

37:                                               ; preds = %30
  %38 = load i64, ptr @rb_eTypeError, align 8, !tbaa !7
  %39 = tail call i64 @rb_str_new_static(ptr noundef nonnull @.str.160, i64 noundef 30) #23
  tail call fastcc void @rb_raise_cstr_i(i64 noundef %38, i64 noundef %39) #27
  unreachable

40:                                               ; preds = %2
  %41 = inttoptr i64 %3 to ptr
  %42 = load i64, ptr %41, align 8, !tbaa !24
  %43 = trunc i64 %42 to i32
  %44 = and i32 %43, 31
  switch i32 %44, label %conversion_to_float.exit [
    i32 4, label %.thread
    i32 10, label %45
    i32 15, label %61
    i32 5, label %.thread
  ]

45:                                               ; preds = %40
  %46 = tail call double @rb_big2dbl(i64 noundef %3) #23
  %47 = bitcast double %46 to i64
  %cond.i16 = icmp eq i64 %47, 3458764513820540928
  br i1 %cond.i16, label %59, label %48

48:                                               ; preds = %45
  %49 = lshr i64 %47, 60
  %50 = trunc nuw nsw i64 %49 to i32
  %51 = and i32 %50, 7
  %52 = add nsw i32 %51, -3
  %.not7.i17 = icmp ult i32 %52, 2
  br i1 %.not7.i17, label %53, label %57

53:                                               ; preds = %48
  %54 = tail call noundef i64 @llvm.fshl.i64(i64 range(i64 3458764513820540929, 3458764513820540928) %47, i64 range(i64 3458764513820540929, 3458764513820540928) %47, i64 3)
  %55 = and i64 %54, -4
  %56 = or disjoint i64 %55, 2
  br label %rb_float_new_inline.exit19

57:                                               ; preds = %48
  %58 = icmp eq i64 %47, 0
  br i1 %58, label %rb_float_new_inline.exit19, label %59

59:                                               ; preds = %57, %45
  %60 = tail call i64 @rb_float_new_in_heap(double noundef %46) #23
  br label %rb_float_new_inline.exit19

rb_float_new_inline.exit19:                       ; preds = %53, %57, %59
  %.0.i18 = phi i64 [ %60, %59 ], [ %56, %53 ], [ -9223372036854775806, %57 ]
  store i64 %.0.i18, ptr %0, align 8, !tbaa !7
  br label %conversion_to_float.exit

61:                                               ; preds = %40
  %62 = tail call fastcc double @rat2dbl_without_to_f(i64 noundef %3)
  %63 = bitcast double %62 to i64
  %cond.i20 = icmp eq i64 %63, 3458764513820540928
  br i1 %cond.i20, label %75, label %64

64:                                               ; preds = %61
  %65 = lshr i64 %63, 60
  %66 = trunc nuw nsw i64 %65 to i32
  %67 = and i32 %66, 7
  %68 = add nsw i32 %67, -3
  %.not7.i21 = icmp ult i32 %68, 2
  br i1 %.not7.i21, label %69, label %73

69:                                               ; preds = %64
  %70 = tail call noundef i64 @llvm.fshl.i64(i64 range(i64 3458764513820540929, 3458764513820540928) %63, i64 range(i64 3458764513820540929, 3458764513820540928) %63, i64 3)
  %71 = and i64 %70, -4
  %72 = or disjoint i64 %71, 2
  br label %rb_float_new_inline.exit23

73:                                               ; preds = %64
  %74 = icmp eq i64 %63, 0
  br i1 %74, label %rb_float_new_inline.exit23, label %75

75:                                               ; preds = %73, %61
  %76 = tail call i64 @rb_float_new_in_heap(double noundef %62) #23
  br label %rb_float_new_inline.exit23

rb_float_new_inline.exit23:                       ; preds = %69, %73, %75
  %.0.i22 = phi i64 [ %76, %75 ], [ %72, %69 ], [ -9223372036854775806, %73 ]
  store i64 %.0.i22, ptr %0, align 8, !tbaa !7
  br label %conversion_to_float.exit

.thread:                                          ; preds = %40, %40
  br label %conversion_to_float.exit

conversion_to_float.exit:                         ; preds = %rb_float_new_inline.exit19, %rb_float_new_inline.exit23, %29, %30, %40, %.thread, %27, %rb_float_new_inline.exit
  %.0 = phi i32 [ 4, %rb_float_new_inline.exit ], [ 4, %27 ], [ 0, %40 ], [ 0, %30 ], [ 0, %29 ], [ 4, %rb_float_new_inline.exit19 ], [ 4, %rb_float_new_inline.exit23 ], [ %44, %.thread ]
  ret i32 %.0
}